target datalayout = "e-m:e-p270:32:32-p271:32:32-p272:64:64-i64:64-i128:128-f80:128-n8:16:32:64-S128"
target triple = "x86_64-pc-linux-gnu"

%struct.translation_ctx_st = type { ptr, i32, i32, ptr, i32, i32, ptr, i64, ptr, ptr, [50 x i8], ptr, ptr, i64 }

; Function Attrs: nounwind uwtable
define internal i32 @fix_distid_len(i32 noundef %0, ptr noundef %1, ptr noundef %2) #0 {
  %4 = alloca i32, align 4
  %5 = alloca ptr, align 8
  %6 = alloca ptr, align 8
  %7 = alloca i32, align 4
  store i32 %0, ptr %4, align 4, !tbaa !8
  store ptr %1, ptr %5, align 8, !tbaa !11
  store ptr %2, ptr %6, align 8, !tbaa !43
  call void @llvm.lifetime.start.p0(i64 4, ptr %7) #9
  %8 = load i32, ptr %4, align 4, !tbaa !8
  %9 = load ptr, ptr %5, align 8, !tbaa !11
  %10 = load ptr, ptr %6, align 8, !tbaa !43
  %11 = call i32 @default_fixup_args(i32 noundef %8, ptr noundef %9, ptr noundef %10)
  store i32 %11, ptr %7, align 4, !tbaa !8
  %12 = load i32, ptr %7, align 4, !tbaa !8
  %13 = icmp sgt i32 %12, 0
  br i1 %13, label %14, label %33

14:                                               ; preds = %3
  store i32 0, ptr %7, align 4, !tbaa !8
  %15 = load i32, ptr %4, align 4, !tbaa !8
  %16 = icmp eq i32 %15, 2
  br i1 %16, label %20, label %17

17:                                               ; preds = %14
  %18 = load i32, ptr %4, align 4, !tbaa !8
  %19 = icmp eq i32 %18, 5
  br i1 %19, label %20, label %32

20:                                               ; preds = %17, %14
  %21 = load ptr, ptr %6, align 8, !tbaa !43
  %22 = getelementptr inbounds nuw %struct.translation_ctx_st, ptr %21, i32 0, i32 1
  %23 = load i32, ptr %22, align 8, !tbaa !35
  %24 = icmp eq i32 %23, 1
  br i1 %24, label %25, label %32

25:                                               ; preds = %20
  %26 = load ptr, ptr %6, align 8, !tbaa !43
  %27 = getelementptr inbounds nuw %struct.translation_ctx_st, ptr %26, i32 0, i32 7
  %28 = load i64, ptr %27, align 8, !tbaa !61
  %29 = load ptr, ptr %6, align 8, !tbaa !43
  %30 = getelementptr inbounds nuw %struct.translation_ctx_st, ptr %29, i32 0, i32 6
  %31 = load ptr, ptr %30, align 8, !tbaa !40
  store i64 %28, ptr %31, align 8, !tbaa !51
  store i32 1, ptr %7, align 4, !tbaa !8
  br label %32

32:                                               ; preds = %25, %20, %17
  br label %33

33:                                               ; preds = %32, %3
  %34 = load i32, ptr %7, align 4, !tbaa !8
  call void @llvm.lifetime.end.p0(i64 4, ptr %7) #9
  ret i32 %34
}