; Function Attrs: nounwind uwtable
define internal range(i32 -2147483648, 2) i32 @fix_distid_len(i32 noundef %0, ptr noundef captures(address_is_null) %1, ptr noundef %2) #0 {
  %4 = tail call i32 @default_fixup_args(i32 noundef %0, ptr noundef %1, ptr noundef %2)
  %5 = icmp sgt i32 %4, 0
  br i1 %5, label %6, label %16

6:                                                ; preds = %3
  switch i32 %0, label %16 [
    i32 5, label %7
    i32 2, label %7
  ]

7:                                                ; preds = %6, %6
  %8 = getelementptr inbounds nuw i8, ptr %2, i64 8
  %9 = load i32, ptr %8, align 8, !tbaa !29
  %10 = icmp eq i32 %9, 1
  br i1 %10, label %11, label %16

11:                                               ; preds = %7
  %12 = getelementptr inbounds nuw i8, ptr %2, i64 40
  %13 = load i64, ptr %12, align 8, !tbaa !55
  %14 = getelementptr inbounds nuw i8, ptr %2, i64 32
  %15 = load ptr, ptr %14, align 8, !tbaa !35
  store i64 %13, ptr %15, align 8, !tbaa !47
  br label %16

16:                                               ; preds = %6, %7, %11, %3
  %.0 = phi i32 [ 1, %11 ], [ 0, %7 ], [ 0, %6 ], [ %4, %3 ]
  ret i32 %.0
}